target datalayout = "e-m:e-p270:32:32-p271:32:32-p272:64:64-i64:64-i128:128-f80:128-n8:16:32:64-S128"
target triple = "x86_64-pc-linux-gnu"

%struct.stbi__zhuffman = type { [512 x i16], [16 x i16], [17 x i32], [16 x i16], [288 x i8], [288 x i16] }
%struct.stbi__zbuf = type { ptr, ptr, i32, i32, i32, ptr, ptr, ptr, i32, %struct.stbi__zhuffman, %struct.stbi__zhuffman }

@stbi__g_failure_reason = thread_local global ptr null, align 8
@.str.45 = private unnamed_addr constant [16 x i8] c"bad zlib header\00", align 1
@.str.46 = private unnamed_addr constant [15 x i8] c"no preset dict\00", align 1
@.str.47 = private unnamed_addr constant [16 x i8] c"bad compression\00", align 1

; Function Attrs: nounwind uwtable
define i32 @stbi__err(ptr noundef %0) #0 {
  %2 = alloca ptr, align 8
  store ptr %0, ptr %2, align 8, !tbaa !7
  %3 = load ptr, ptr %2, align 8, !tbaa !7
  %4 = call align 8 ptr @llvm.threadlocal.address.p0(ptr align 8 @stbi__g_failure_reason)
  store ptr %3, ptr %4, align 8, !tbaa !7
  ret i32 0
}

; Function Attrs: nounwind uwtable
define i32 @stbi__zeof(ptr noundef %0) #0 {
  %2 = alloca ptr, align 8
  store ptr %0, ptr %2, align 8, !tbaa !3
  %3 = load ptr, ptr %2, align 8, !tbaa !3
  %4 = getelementptr inbounds nuw %struct.stbi__zbuf, ptr %3, i32 0, i32 0
  %5 = load ptr, ptr %4, align 8, !tbaa !285
  %6 = load ptr, ptr %2, align 8, !tbaa !3
  %7 = getelementptr inbounds nuw %struct.stbi__zbuf, ptr %6, i32 0, i32 1
  %8 = load ptr, ptr %7, align 8, !tbaa !288
  %9 = icmp uge ptr %5, %8
  %10 = zext i1 %9 to i32
  ret i32 %10
}

; Function Attrs: nounwind uwtable
define zeroext i8 @stbi__zget8(ptr noundef %0) #0 {
  %2 = alloca ptr, align 8
  store ptr %0, ptr %2, align 8, !tbaa !3
  %3 = load ptr, ptr %2, align 8, !tbaa !3
  %4 = call i32 @stbi__zeof(ptr noundef %3)
  %5 = icmp ne i32 %4, 0
  br i1 %5, label %6, label %7

6:                                                ; preds = %1
  br label %14

7:                                                ; preds = %1
  %8 = load ptr, ptr %2, align 8, !tbaa !3
  %9 = getelementptr inbounds nuw %struct.stbi__zbuf, ptr %8, i32 0, i32 0
  %10 = load ptr, ptr %9, align 8, !tbaa !285
  %11 = getelementptr inbounds nuw i8, ptr %10, i32 1
  store ptr %11, ptr %9, align 8, !tbaa !285
  %12 = load i8, ptr %10, align 1, !tbaa !23
  %13 = zext i8 %12 to i32
  br label %14

14:                                               ; preds = %7, %6
  %15 = phi i32 [ 0, %6 ], [ %13, %7 ]
  %16 = trunc i32 %15 to i8
  ret i8 %16
}

; Function Attrs: nounwind uwtable
define i32 @stbi__parse_zlib_header(ptr noundef %0) #0 {
  %2 = alloca i32, align 4
  %3 = alloca ptr, align 8
  %4 = alloca i32, align 4
  %5 = alloca i32, align 4
  %6 = alloca i32, align 4
  %7 = alloca i32, align 4
  store ptr %0, ptr %3, align 8, !tbaa !3
  call void @llvm.lifetime.start.p0(i64 4, ptr %4) #13
  %8 = load ptr, ptr %3, align 8, !tbaa !3
  %9 = call zeroext i8 @stbi__zget8(ptr noundef %8)
  %10 = zext i8 %9 to i32
  store i32 %10, ptr %4, align 4, !tbaa !9
  call void @llvm.lifetime.start.p0(i64 4, ptr %5) #13
  %11 = load i32, ptr %4, align 4, !tbaa !9
  %12 = and i32 %11, 15
  store i32 %12, ptr %5, align 4, !tbaa !9
  call void @llvm.lifetime.start.p0(i64 4, ptr %6) #13
  %13 = load ptr, ptr %3, align 8, !tbaa !3
  %14 = call zeroext i8 @stbi__zget8(ptr noundef %13)
  %15 = zext i8 %14 to i32
  store i32 %15, ptr %6, align 4, !tbaa !9
  %16 = load ptr, ptr %3, align 8, !tbaa !3
  %17 = call i32 @stbi__zeof(ptr noundef %16)
  %18 = icmp ne i32 %17, 0
  br i1 %18, label %19, label %21

19:                                               ; preds = %1
  %20 = call i32 @stbi__err(ptr noundef @.str.45)
  store i32 %20, ptr %2, align 4
  store i32 1, ptr %7, align 4
  br label %42

21:                                               ; preds = %1
  %22 = load i32, ptr %4, align 4, !tbaa !9
  %23 = mul nsw i32 %22, 256
  %24 = load i32, ptr %6, align 4, !tbaa !9
  %25 = add nsw i32 %23, %24
  %26 = srem i32 %25, 31
  %27 = icmp ne i32 %26, 0
  br i1 %27, label %28, label %30

28:                                               ; preds = %21
  %29 = call i32 @stbi__err(ptr noundef @.str.45)
  store i32 %29, ptr %2, align 4
  store i32 1, ptr %7, align 4
  br label %42

30:                                               ; preds = %21
  %31 = load i32, ptr %6, align 4, !tbaa !9
  %32 = and i32 %31, 32
  %33 = icmp ne i32 %32, 0
  br i1 %33, label %34, label %36

34:                                               ; preds = %30
  %35 = call i32 @stbi__err(ptr noundef @.str.46)
  store i32 %35, ptr %2, align 4
  store i32 1, ptr %7, align 4
  br label %42

36:                                               ; preds = %30
  %37 = load i32, ptr %5, align 4, !tbaa !9
  %38 = icmp ne i32 %37, 8
  br i1 %38, label %39, label %41

39:                                               ; preds = %36
  %40 = call i32 @stbi__err(ptr noundef @.str.47)
  store i32 %40, ptr %2, align 4
  store i32 1, ptr %7, align 4
  br label %42

41:                                               ; preds = %36
  store i32 1, ptr %2, align 4
  store i32 1, ptr %7, align 4
  br label %42

42:                                               ; preds = %41, %39, %34, %28, %19
  call void @llvm.lifetime.end.p0(i64 4, ptr %6) #13
  call void @llvm.lifetime.end.p0(i64 4, ptr %5) #13
  call void @llvm.lifetime.end.p0(i64 4, ptr %4) #13
  %43 = load i32, ptr %2, align 4
  ret i32 %43
}