; Function Attrs: mustprogress nofree norecurse nosync nounwind willreturn memory(readwrite, inaccessiblemem: none) uwtable
define range(i32 0, 2) i32 @stbi__parse_zlib_header(ptr noundef captures(none) %0) local_unnamed_addr #28 {
  %2 = load ptr, ptr %0, align 8, !tbaa !275
  %3 = getelementptr inbounds nuw i8, ptr %0, i64 8
  %4 = load ptr, ptr %3, align 8, !tbaa !278
  %.not2.i = icmp ult ptr %2, %4
  br i1 %.not2.i, label %5, label %stbi__zget8.exit

5:                                                ; preds = %1
  %6 = getelementptr inbounds nuw i8, ptr %2, i64 1
  store ptr %6, ptr %0, align 8, !tbaa !275
  %7 = load i8, ptr %2, align 1, !tbaa !21
  %8 = zext i8 %7 to i32
  br label %stbi__zget8.exit

stbi__zget8.exit:                                 ; preds = %1, %5
  %9 = phi ptr [ %6, %5 ], [ %2, %1 ]
  %10 = phi i32 [ %8, %5 ], [ 0, %1 ]
  %11 = and i32 %10, 15
  %.not2.i11 = icmp ult ptr %9, %4
  br i1 %.not2.i11, label %12, label %stbi__zget8.exit12

12:                                               ; preds = %stbi__zget8.exit
  %13 = getelementptr inbounds nuw i8, ptr %9, i64 1
  store ptr %13, ptr %0, align 8, !tbaa !275
  %14 = load i8, ptr %9, align 1, !tbaa !21
  %15 = zext i8 %14 to i32
  br label %stbi__zget8.exit12

stbi__zget8.exit12:                               ; preds = %stbi__zget8.exit, %12
  %16 = phi ptr [ %13, %12 ], [ %9, %stbi__zget8.exit ]
  %17 = phi i32 [ %15, %12 ], [ 0, %stbi__zget8.exit ]
  %.not13 = icmp ult ptr %16, %4
  br i1 %.not13, label %18, label %.sink.split

18:                                               ; preds = %stbi__zget8.exit12
  %19 = shl nuw nsw i32 %10, 8
  %20 = or disjoint i32 %17, %19
  %.lhs.trunc = trunc nuw i32 %20 to i16
  %21 = urem i16 %.lhs.trunc, 31
  %.not8 = icmp eq i16 %21, 0
  br i1 %.not8, label %22, label %.sink.split

22:                                               ; preds = %18
  %23 = and i32 %17, 32
  %.not9 = icmp eq i32 %23, 0
  br i1 %.not9, label %24, label %.sink.split

24:                                               ; preds = %22
  %.not10 = icmp eq i32 %11, 8
  br i1 %.not10, label %26, label %.sink.split

.sink.split:                                      ; preds = %24, %22, %18, %stbi__zget8.exit12
  %.str.47.sink = phi ptr [ @.str.45, %stbi__zget8.exit12 ], [ @.str.45, %18 ], [ @.str.46, %22 ], [ @.str.47, %24 ]
  %25 = tail call align 8 ptr @llvm.threadlocal.address.p0(ptr align 8 @stbi__g_failure_reason)
  store ptr %.str.47.sink, ptr %25, align 8, !tbaa !22
  br label %26

26:                                               ; preds = %.sink.split, %24
  %.0 = phi i32 [ 1, %24 ], [ 0, %.sink.split ]
  ret i32 %.0
}